Certificate:
    Data:
        Version: 3 (0x2)
        Serial Number: 3 (0x3)
    Signature Algorithm: sha1WithRSAEncryption
        Issuer: C=xy, ST=xy, O=xy, OU=xy, CN=xy/emailAddress=xy
        Validity
            Not Before: Nov 19 00:16:23 2015 GMT
            Not After : Nov 18 00:16:23 2016 GMT
        Subject: C=xy, ST=xy, O=xy, OU=xy, CN=xy/emailAddress=xy
        Subject Public Key Info:
            Public Key Algorithm: rsaEncryption
                Public-Key: (2048 bit)
                Modulus:
                    00:c9:bb:a2:cb:87:16:71:5e:4a:eb:d8:c2:b4:10:
                    10:cc:7c:68:c1:6f:3e:d7:40:81:6e:78:03:bf:57:
                    5b:5a:72:97:14:40:5a:3a:24:c4:58:43:ae:03:e7:
                    2d:38:d5:b6:6c:0c:4b:73:32:87:fb:15:c3:b2:2c:
                    e6:a4:a8:ed:c2:d1:1f:d2:74:ee:6b:10:61:48:c0:
                    ef:60:5c:b4:f6:c2:0e:42:af:ec:6a:c4:75:3b:9f:
                    c5:ed:34:82:62:3f:43:d5:0b:97:11:5b:43:5a:5c:
                    ef:07:8f:e4:91:1e:61:96:64:cb:4a:5c:11:21:05:
                    75:40:c6:2c:13:ff:68:bd:d8:28:58:73:42:98:ec:
                    bc:bf:43:25:60:60:b9:29:52:68:2e:ce:8f:2b:a5:
                    84:17:95:5c:fc:84:09:54:27:e3:0c:85:2b:3e:44:
                    04:12:33:18:7d:56:bc:e8:38:1c:a5:51:ae:0a:11:
                    a6:52:cb:a2:27:a9:39:61:51:cc:91:02:8f:73:4e:
                    4d:5b:d1:1a:67:08:bf:3b:08:68:30:97:7c:04:76:
                    0d:b0:98:05:b1:4a:ef:9c:00:4d:4e:63:f3:98:94:
                    b2:1c:c1:75:56:f8:40:0b:04:03:05:ad:3e:83:27:
                    90:73:a5:25:21:32:3c:26:5a:44:f0:54:b1:8f:10:
                    59:91
                Exponent: 65537 (0x10001)
        X509v3 extensions:
            X509v3 Basic Constraints: 
                CA:FALSE
            Netscape Comment: 
                OpenSSL Generated Certificate
            X509v3 Subject Key Identifier: 
                81:1B:EE:51:F5:17:17:71:BB:6A:DA:86:2B:F4:7A:C2:F5:0C:D4:32
            X509v3 Authority Key Identifier: 
                keyid:83:40:EF:9C:92:6A:B3:56:1D:F3:43:54:A4:33:45:F1:80:5E:0D:95

    Signature Algorithm: sha1WithRSAEncryption
         a8:20:66:31:b3:1f:89:be:80:7f:af:15:e8:fb:75:c7:23:ed:
         29:44:f2:e3:2c:7a:86:b2:e9:07:0f:76:9c:6c:67:39:70:14:
         f2:97:a9:19:dc:8a:7b:09:79:23:1d:3a:32:a0:c9:9c:b9:31:
         de:8f:c7:79:39:84:1f:55:01:29:73:25:39:44:dc:21:0b:91:
         b3:63:b5:57:59:84:f6:9c:3d:cc:54:07:49:11:cd:23:f7:d5:
         37:bb:60:24:54:bd:ca:65:b0:5b:1c:6c:65:90:68:f4:35:46:
         61:26:cc:c5:e0:74:0c:84:23:06:20:c4:a9:98:51:3a:83:18:
         cb:74:ea:2f:e7:0b:f7:d2:d2:4a:21:ee:18:01:65:a6:47:69:
         ec:a2:58:6a:93:8d:d1:c2:9b:9b:8e:c4:fa:a9:36:b3:6e:4a:
         bb:6d:02:77:6c:06:7b:70:e1:a5:0e:39:6e:88:a9:cd:5c:67:
         6a:70:de:4d:68:01:62:51:cb:68:0a:b9:f6:ed:57:03:b6:c9:
         9b:09:c2:21:10:e3:9c:86:72:c9:8a:50:5d:ba:61:a0:03:43:
         e4:e1:39:8b:51:8e:bd:ce:ea:f6:eb:36:4a:3e:07:a9:0e:0c:
         62:0f:92:17:72:eb:3e:ae:7f:99:60:58:0a:c8:52:36:b7:0b:
         ae:24:30:58
-----BEGIN CERTIFICATE-----
MIIDnjCCAoagAwIBAgIBAzANBgkqhkiG9w0BAQUFADBUMQswCQYDVQQGEwJ4eTEL
MAkGA1UECAwCeHkxCzAJBgNVBAoMAnh5MQswCQYDVQQLDAJ4eTELMAkGA1UEAwwC
eHkxETAPBgkqhkiG9w0BCQEWAnh5MB4XDTE1MTExOTAwMTYyM1oXDTE2MTExODAw
MTYyM1owVDELMAkGA1UEBhMCeHkxCzAJBgNVBAgMAnh5MQswCQYDVQQKDAJ4eTEL
MAkGA1UECwwCeHkxCzAJBgNVBAMMAnh5MREwDwYJKoZIhvcNAQkBFgJ4eTCCASIw
DQYJKoZIhvcNAQEBBQADggEPADCCAQoCggEBAMm7osuHFnFeSuvYwrQQEMx8aMFv
PtdAgW54A79XW1pylxRAWjokxFhDrgPnLTjVtmwMS3Myh/sVw7Is5qSo7cLRH9J0
7msQYUjA72BctPbCDkKv7GrEdTufxe00gmI/Q9ULlxFbQ1pc7weP5JEeYZZky0pc
ESEFdUDGLBP/aL3YKFhzQpjsvL9DJWBguSlSaC7OjyulhBeVXPyECVQn4wyFKz5E
BBIzGH1WvOg4HKVRrgoRplLLoiepOWFRzJECj3NOTVvRGmcIvzsIaDCXfAR2DbCY
BbFK75wATU5j85iUshzBdVb4QAsEAwWtPoMnkHOlJSEyPCZaRPBUsY8QWZECAwEA
AaN7MHkwCQYDVR0TBAIwADAsBglghkgBhvhCAQ0EHxYdT3BlblNTTCBHZW5lcmF0
ZWQgQ2VydGlmaWNhdGUwHQYDVR0OBBYEFIEb7lH1Fxdxu2rahiv0esL1DNQyMB8G
A1UdIwQYMBaAFINA75ySarNWHfNDVKQzRfGAXg2VMA0GCSqGSIb3DQEBBQUAA4IB
AQCoIGYxsx+JvoB/rxXo+3XHI+0pRPLjLHqGsukHD3acbGc5cBTyl6kZ3Ip7CXkj
HToyoMmcuTHej8d5OYQfVQEpcyU5RNwhC5GzY7VXWYT2nD3MVAdJEc0j99U3u2Ak
VL3KZbBbHGxlkGj0NUZhJszF4HQMhCMGIMSpmFE6gxjLdOov5wv30tJKIe4YAWWm
R2nsolhqk43RwpubjsT6qTazbkq7bQJ3bAZ7cOGlDjluiKnNXGdqcN5NaAFiUcto
Crn27VcDtsmbCcIhEOOchnLJilBdumGgA0Pk4TmLUY69zur26zZKPgepDgxiD5IX
cus+rn+ZYFgKyFI2twuuJDBY
-----END CERTIFICATE-----
