Certificate:
    Data:
        Version: 3 (0x2)
        Serial Number: 1 (0x1)
    Signature Algorithm: sha1WithRSAEncryption
        Issuer: C=xy, ST=xy, O=xy, OU=xy, CN=xy/emailAddress=xy
        Validity
            Not Before: Nov 19 00:09:47 2015 GMT
            Not After : Nov 18 00:09:47 2016 GMT
        Subject: C=xy, ST=xy, O=xy, OU=xy, CN=xy/emailAddress=xy
        Subject Public Key Info:
            Public Key Algorithm: rsaEncryption
                Public-Key: (2048 bit)
                Modulus:
                    00:c9:8e:f4:34:8d:bb:a4:ab:b6:28:3c:b0:38:f9:
                    48:2e:07:35:da:a3:d9:e2:ae:50:eb:0a:34:58:1e:
                    47:b7:f1:f3:73:e4:69:15:53:06:5f:de:ef:48:58:
                    37:52:07:03:dc:13:a3:b2:20:3a:19:e3:ec:5e:66:
                    a7:37:8b:92:59:7c:49:28:2a:ae:17:b6:1a:8a:12:
                    76:4c:8f:95:16:11:dc:09:d3:59:43:ae:4e:bd:a8:
                    25:fb:a5:35:22:5f:18:ff:a1:f7:70:ab:16:6f:47:
                    dc:46:d0:39:00:a8:ab:32:8f:5a:88:aa:64:79:01:
                    2d:a9:35:04:eb:af:ec:26:df:e8:29:c6:a6:94:36:
                    96:86:da:69:92:2d:f2:c2:ec:08:de:c8:66:97:95:
                    0d:e9:82:8e:05:fb:01:08:4e:19:44:0c:5e:31:8d:
                    5c:f0:fb:e5:33:ce:8d:f3:df:08:53:07:ea:1a:3e:
                    81:8f:0f:3f:ba:49:9e:b0:d1:21:9f:3d:d1:d8:d6:
                    15:c1:1b:bc:72:0d:2d:b9:52:3b:b7:8f:d2:84:73:
                    2d:9f:e3:25:79:be:ba:31:be:3c:b2:71:eb:29:87:
                    5f:ad:8f:59:6b:64:5f:1c:54:3a:e2:e3:fc:8a:f1:
                    46:00:2e:7f:b7:77:7e:1b:f1:aa:bc:69:be:5d:c6:
                    30:0b
                Exponent: 65537 (0x10001)
        X509v3 extensions:
            X509v3 Basic Constraints: 
                CA:FALSE
            Netscape Comment: 
                OpenSSL Generated Certificate
            X509v3 Subject Key Identifier: 
                83:40:EF:9C:92:6A:B3:56:1D:F3:43:54:A4:33:45:F1:80:5E:0D:95
            X509v3 Authority Key Identifier: 
                keyid:83:40:EF:9C:92:6A:B3:56:1D:F3:43:54:A4:33:45:F1:80:5E:0D:95

    Signature Algorithm: sha1WithRSAEncryption
         9e:e3:75:1f:a5:c8:e4:26:85:28:67:50:df:d4:f7:fc:1f:dd:
         31:e2:56:b7:b1:d8:a5:5f:4f:1f:e1:99:43:82:36:7f:a5:49:
         0c:a4:42:ea:59:19:33:14:5c:0f:bb:05:62:9d:15:7a:fc:c6:
         42:53:e6:53:04:a1:0a:c9:ba:c0:f7:0b:26:7f:f0:88:75:53:
         8d:57:b6:bd:02:75:29:00:78:4d:b0:59:cf:4c:39:c8:ad:33:
         c2:3e:7b:6b:87:64:80:43:b4:86:95:1c:24:1f:79:86:ef:45:
         5a:fa:36:3d:7f:37:8f:1d:46:85:f6:11:58:49:be:cc:96:be:
         21:c7:50:82:90:97:72:58:c0:29:14:b6:1f:ba:2c:a8:84:ac:
         52:28:cb:55:dc:02:72:27:b6:67:c6:e9:29:f2:24:2e:e6:43:
         20:45:ed:32:d8:36:7c:83:ed:03:37:e1:b4:e9:0b:1a:cc:46:
         46:f0:8c:06:5e:b3:72:86:f4:f0:52:6a:bd:92:39:1c:26:1d:
         33:9a:07:bc:6b:9f:57:17:68:2d:8d:42:49:86:08:59:f3:f5:
         84:68:19:4a:68:11:7e:80:1d:2b:e1:84:f5:a6:96:f0:b8:12:
         12:0b:04:85:ca:ab:02:cd:38:8d:d8:ec:3a:98:2a:43:dc:ef:
         21:ff:ff:88
-----BEGIN CERTIFICATE-----
MIIDnjCCAoagAwIBAgIBATANBgkqhkiG9w0BAQUFADBUMQswCQYDVQQGEwJ4eTEL
MAkGA1UECAwCeHkxCzAJBgNVBAoMAnh5MQswCQYDVQQLDAJ4eTELMAkGA1UEAwwC
eHkxETAPBgkqhkiG9w0BCQEWAnh5MB4XDTE1MTExOTAwMDk0N1oXDTE2MTExODAw
MDk0N1owVDELMAkGA1UEBhMCeHkxCzAJBgNVBAgMAnh5MQswCQYDVQQKDAJ4eTEL
MAkGA1UECwwCeHkxCzAJBgNVBAMMAnh5MREwDwYJKoZIhvcNAQkBFgJ4eTCCASIw
DQYJKoZIhvcNAQEBBQADggEPADCCAQoCggEBAMmO9DSNu6Srtig8sDj5SC4HNdqj
2eKuUOsKNFgeR7fx83PkaRVTBl/e70hYN1IHA9wTo7IgOhnj7F5mpzeLkll8SSgq
rhe2GooSdkyPlRYR3AnTWUOuTr2oJfulNSJfGP+h93CrFm9H3EbQOQCoqzKPWoiq
ZHkBLak1BOuv7Cbf6CnGppQ2lobaaZIt8sLsCN7IZpeVDemCjgX7AQhOGUQMXjGN
XPD75TPOjfPfCFMH6ho+gY8PP7pJnrDRIZ890djWFcEbvHINLblSO7eP0oRzLZ/j
JXm+ujG+PLJx6ymHX62PWWtkXxxUOuLj/IrxRgAuf7d3fhvxqrxpvl3GMAsCAwEA
AaN7MHkwCQYDVR0TBAIwADAsBglghkgBhvhCAQ0EHxYdT3BlblNTTCBHZW5lcmF0
ZWQgQ2VydGlmaWNhdGUwHQYDVR0OBBYEFINA75ySarNWHfNDVKQzRfGAXg2VMB8G
A1UdIwQYMBaAFINA75ySarNWHfNDVKQzRfGAXg2VMA0GCSqGSIb3DQEBBQUAA4IB
AQCe43UfpcjkJoUoZ1Df1Pf8H90x4la3sdilX08f4ZlDgjZ/pUkMpELqWRkzFFwP
uwVinRV6/MZCU+ZTBKEKybrA9wsmf/CIdVONV7a9AnUpAHhNsFnPTDnIrTPCPntr
h2SAQ7SGlRwkH3mG70Va+jY9fzePHUaF9hFYSb7Mlr4hx1CCkJdyWMApFLYfuiyo
hKxSKMtV3AJyJ7Znxukp8iQu5kMgRe0y2DZ8g+0DN+G06QsazEZG8IwGXrNyhvTw
Umq9kjkcJh0zmge8a59XF2gtjUJJhghZ8/WEaBlKaBF+gB0r4YT1ppbwuBISCwSF
yqsCzTiN2Ow6mCpD3O8h//+I
-----END CERTIFICATE-----
