Certificate:
    Data:
        Version: 3 (0x2)
        Serial Number: 2 (0x2)
    Signature Algorithm: sha1WithRSAEncryption
        Issuer: C=xy, ST=xy, O=xy, OU=xy, CN=xy/emailAddress=xy
        Validity
            Not Before: Nov 19 00:15:55 2015 GMT
            Not After : Nov 18 00:15:55 2016 GMT
        Subject: C=xy, ST=xy, O=xy, OU=xy, CN=xy/emailAddress=xy
        Subject Public Key Info:
            Public Key Algorithm: rsaEncryption
                Public-Key: (2048 bit)
                Modulus:
                    00:9d:cb:33:41:16:44:6a:31:cb:cb:67:fa:17:b8:
                    1b:7d:3a:14:1e:67:3f:7c:37:be:84:fa:fb:df:bd:
                    57:b6:bb:96:63:b1:d7:d2:28:ff:9d:6f:7a:d9:a6:
                    ff:19:12:60:d4:cb:f4:29:bf:5b:12:46:28:d0:5b:
                    9a:85:0e:60:c2:01:f6:5f:32:34:4c:37:52:61:86:
                    fd:11:7b:ae:ee:45:77:23:a8:3f:5a:e9:c8:aa:44:
                    8c:fb:03:40:f3:db:af:f1:c3:61:1e:ba:6e:30:02:
                    49:6b:90:4f:7f:d4:98:df:f0:10:3a:48:42:fc:56:
                    10:ab:31:d4:04:fc:a9:55:6f:9b:c4:58:4c:d2:30:
                    96:af:4d:dc:aa:f4:1f:46:cb:9b:d5:06:6e:6e:bb:
                    2c:b8:8a:a3:25:40:fe:a4:a9:f7:d9:9a:ab:c6:87:
                    64:30:e7:32:e9:d5:06:31:8d:c1:df:77:ae:98:e0:
                    b3:0f:19:f5:88:18:ee:b0:5c:79:c3:66:e7:89:ca:
                    fd:01:03:a7:a7:64:0c:e5:76:25:17:65:d7:ed:d5:
                    3f:e7:d0:78:b6:d8:1a:2e:8e:4f:97:0d:e1:91:28:
                    17:05:f1:3a:ec:ac:c1:54:4e:e1:fc:53:8d:39:3c:
                    35:e8:9b:61:c5:6a:28:df:6b:ae:51:c8:4b:7b:d0:
                    0b:e5
                Exponent: 65537 (0x10001)
        X509v3 extensions:
            X509v3 Basic Constraints: 
                CA:FALSE
            Netscape Comment: 
                OpenSSL Generated Certificate
            X509v3 Subject Key Identifier: 
                3D:A9:1E:E5:D2:E8:32:8C:53:FC:B6:42:76:69:8A:69:C8:88:FA:CB
            X509v3 Authority Key Identifier: 
                keyid:83:40:EF:9C:92:6A:B3:56:1D:F3:43:54:A4:33:45:F1:80:5E:0D:95

    Signature Algorithm: sha1WithRSAEncryption
         a6:82:70:5f:5e:27:38:e0:f2:03:a3:35:ea:45:0d:fb:41:2d:
         53:28:d4:b5:95:7c:5a:bf:4c:6d:e7:e2:07:95:85:72:e2:23:
         25:68:9f:4d:bf:77:f6:16:62:58:4e:ae:d2:0e:4b:f9:16:7a:
         f8:29:30:3f:6b:79:ea:14:c8:be:45:3e:c9:a6:ae:28:88:77:
         d9:39:65:3e:98:c7:a4:54:70:f9:a2:57:35:46:8b:bb:d5:9c:
         09:f2:2c:c7:89:c1:d3:29:14:10:1c:e0:25:9f:cb:07:39:75:
         eb:0b:56:03:0e:04:c3:3b:f1:34:da:af:a9:e8:81:4b:30:ce:
         e3:48:7c:f8:1a:2d:8b:79:79:a1:c6:49:13:a8:72:c9:26:95:
         50:58:ca:93:1e:75:a1:dd:d1:7c:c5:07:2a:26:3d:80:51:0c:
         6a:e8:2f:42:ab:4d:d0:58:84:49:6d:86:ef:ac:7f:80:4f:3b:
         bb:5f:8d:22:6a:8a:57:da:dd:ec:84:e6:9d:f1:4c:ae:b8:06:
         0c:21:47:0f:25:4e:8a:19:28:58:00:a0:5e:f2:fc:ee:d6:14:
         2a:d4:6d:ac:5b:bb:3e:2b:c6:d2:71:1e:17:e9:be:bf:1e:92:
         0c:f4:71:b1:42:6e:6c:74:69:39:30:b3:f4:de:a5:4c:da:d7:
         7b:d4:b6:a2
-----BEGIN CERTIFICATE-----
MIIDnjCCAoagAwIBAgIBAjANBgkqhkiG9w0BAQUFADBUMQswCQYDVQQGEwJ4eTEL
MAkGA1UECAwCeHkxCzAJBgNVBAoMAnh5MQswCQYDVQQLDAJ4eTELMAkGA1UEAwwC
eHkxETAPBgkqhkiG9w0BCQEWAnh5MB4XDTE1MTExOTAwMTU1NVoXDTE2MTExODAw
MTU1NVowVDELMAkGA1UEBhMCeHkxCzAJBgNVBAgMAnh5MQswCQYDVQQKDAJ4eTEL
MAkGA1UECwwCeHkxCzAJBgNVBAMMAnh5MREwDwYJKoZIhvcNAQkBFgJ4eTCCASIw
DQYJKoZIhvcNAQEBBQADggEPADCCAQoCggEBAJ3LM0EWRGoxy8tn+he4G306FB5n
P3w3voT6+9+9V7a7lmOx19Io/51vetmm/xkSYNTL9Cm/WxJGKNBbmoUOYMIB9l8y
NEw3UmGG/RF7ru5FdyOoP1rpyKpEjPsDQPPbr/HDYR66bjACSWuQT3/UmN/wEDpI
QvxWEKsx1AT8qVVvm8RYTNIwlq9N3Kr0H0bLm9UGbm67LLiKoyVA/qSp99maq8aH
ZDDnMunVBjGNwd93rpjgsw8Z9YgY7rBcecNm54nK/QEDp6dkDOV2JRdl1+3VP+fQ
eLbYGi6OT5cN4ZEoFwXxOuyswVRO4fxTjTk8NeibYcVqKN9rrlHIS3vQC+UCAwEA
AaN7MHkwCQYDVR0TBAIwADAsBglghkgBhvhCAQ0EHxYdT3BlblNTTCBHZW5lcmF0
ZWQgQ2VydGlmaWNhdGUwHQYDVR0OBBYEFD2pHuXS6DKMU/y2QnZpimnIiPrLMB8G
A1UdIwQYMBaAFINA75ySarNWHfNDVKQzRfGAXg2VMA0GCSqGSIb3DQEBBQUAA4IB
AQCmgnBfXic44PIDozXqRQ37QS1TKNS1lXxav0xt5+IHlYVy4iMlaJ9Nv3f2FmJY
Tq7SDkv5Fnr4KTA/a3nqFMi+RT7Jpq4oiHfZOWU+mMekVHD5olc1Rou71ZwJ8izH
icHTKRQQHOAln8sHOXXrC1YDDgTDO/E02q+p6IFLMM7jSHz4Gi2LeXmhxkkTqHLJ
JpVQWMqTHnWh3dF8xQcqJj2AUQxq6C9Cq03QWIRJbYbvrH+ATzu7X40iaopX2t3s
hOad8UyuuAYMIUcPJU6KGShYAKBe8vzu1hQq1G2sW7s+K8bScR4X6b6/HpIM9HGx
Qm5sdGk5MLP03qVM2td71Lai
-----END CERTIFICATE-----
